target datalayout = "e-m:e-p270:32:32-p271:32:32-p272:64:64-i64:64-i128:128-f80:128-n8:16:32:64-S128"
target triple = "x86_64-pc-linux-gnu"

@stderr = external global ptr, align 8
@stdout = external global ptr, align 8
@.str.52 = private unnamed_addr constant [48 x i8] c"Output on stdout from grandchild before sleep.\0A\00", align 1
@.str.53 = private unnamed_addr constant [48 x i8] c"Output on stderr from grandchild before sleep.\0A\00", align 1

; Function Attrs: nounwind uwtable
define internal void @testProcess_sleep(i32 noundef %0) #0 {
  %2 = alloca i32, align 4
  store i32 %0, ptr %2, align 4, !tbaa !9
  %3 = load i32, ptr %2, align 4, !tbaa !9
  %4 = call i32 @sleep(i32 noundef %3)
  ret void
}

; Function Attrs: nounwind uwtable
define internal i32 @test8_grandchild(i32 noundef %0, ptr noundef %1) #0 {
  %3 = alloca i32, align 4
  %4 = alloca ptr, align 8
  store i32 %0, ptr %3, align 4, !tbaa !9
  store ptr %1, ptr %4, align 8, !tbaa !4
  %5 = load ptr, ptr @stdout, align 8, !tbaa !15
  %6 = call i32 (ptr, ptr, ...) @fprintf(ptr noundef %5, ptr noundef @.str.52) #8
  %7 = load ptr, ptr @stderr, align 8, !tbaa !15
  %8 = call i32 (ptr, ptr, ...) @fprintf(ptr noundef %7, ptr noundef @.str.53) #8
  %9 = load ptr, ptr @stdout, align 8, !tbaa !15
  %10 = call i32 @fflush(ptr noundef %9)
  %11 = load ptr, ptr @stderr, align 8, !tbaa !15
  %12 = call i32 @fflush(ptr noundef %11)
  %13 = load ptr, ptr @stdout, align 8, !tbaa !15
  %14 = call i32 @fclose(ptr noundef %13)
  %15 = load ptr, ptr @stderr, align 8, !tbaa !15
  %16 = call i32 @fclose(ptr noundef %15)
  call void @testProcess_sleep(i32 noundef 15)
  ret i32 0
}