; Function Attrs: cold nounwind uwtable
define internal fastcc void @test8_grandchild() unnamed_addr #6 {
  %1 = load ptr, ptr @stdout, align 8, !tbaa !4
  %2 = tail call i64 @fwrite(ptr nonnull @.str.52, i64 47, i64 1, ptr %1)
  %3 = load ptr, ptr @stderr, align 8, !tbaa !4
  %4 = tail call i64 @fwrite(ptr nonnull @.str.53, i64 47, i64 1, ptr %3) #14
  %5 = load ptr, ptr @stdout, align 8, !tbaa !4
  %6 = tail call i32 @fflush(ptr noundef %5)
  %7 = load ptr, ptr @stderr, align 8, !tbaa !4
  %8 = tail call i32 @fflush(ptr noundef %7)
  %9 = load ptr, ptr @stdout, align 8, !tbaa !4
  %10 = tail call i32 @fclose(ptr noundef %9)
  %11 = load ptr, ptr @stderr, align 8, !tbaa !4
  %12 = tail call i32 @fclose(ptr noundef %11)
  %13 = tail call i32 @sleep(i32 noundef 15) #13
  ret void
}